; Function Attrs: mustprogress uwtable
define dso_local void @_ZN9Statement20InitProbabilityTableEv() local_unnamed_addr #4 align 2 personality ptr @__gxx_personality_v0 {
  %1 = load ptr, ptr @_ZN9Statement10stmtTable_E, align 8
  %.not = icmp eq ptr %1, null
  br i1 %.not, label %2, label %6

2:                                                ; preds = %0
  %3 = tail call noalias noundef nonnull dereferenceable(32) ptr @_Znwm(i64 noundef 32) #23
  store i32 0, ptr %3, align 8
  %4 = getelementptr inbounds i8, ptr %3, i64 8
  tail call void @llvm.memset.p0.i64(ptr noundef nonnull align 8 dereferenceable(24) %4, i8 0, i64 24, i1 false)
  store ptr %3, ptr @_ZN9Statement10stmtTable_E, align 8
  %5 = tail call noundef ptr @_ZN13Probabilities11GetInstanceEv()
  tail call void @_ZN13Probabilities14set_prob_tableEP16ProbabilityTableIj8ProbNameES1_(ptr noundef nonnull align 8 dereferenceable(288) %5, ptr noundef nonnull %3, i32 noundef 25)
  br label %6

6:                                                ; preds = %0, %2
  ret void
}